target datalayout = "e-m:e-p270:32:32-p271:32:32-p272:64:64-i64:64-i128:128-f80:128-n8:16:32:64-S128"
target triple = "x86_64-pc-linux-gnu"

%"class.Ipopt::IpoptAlgorithm" = type { %"class.Ipopt::AlgorithmStrategyObject.base", %"class.Ipopt::SmartPtr.3", %"class.Ipopt::SmartPtr.4", %"class.Ipopt::SmartPtr.5", %"class.Ipopt::SmartPtr.6", %"class.Ipopt::SmartPtr.7", %"class.Ipopt::SmartPtr.8", %"class.Ipopt::SmartPtr.9", %"class.Ipopt::SmartPtr.10", i8, double, i8, double, i8, %"class.std::__cxx11::basic_string", double }
%"class.Ipopt::AlgorithmStrategyObject.base" = type <{ %"class.Ipopt::ReferencedObject.base", [4 x i8], %"class.Ipopt::SmartPtr", %"class.Ipopt::SmartPtr.0", %"class.Ipopt::SmartPtr.1", %"class.Ipopt::SmartPtr.2", i8 }>
%"class.Ipopt::ReferencedObject.base" = type <{ ptr, i32 }>
%"class.Ipopt::SmartPtr" = type { ptr }
%"class.Ipopt::SmartPtr.0" = type { ptr }
%"class.Ipopt::SmartPtr.1" = type { ptr }
%"class.Ipopt::SmartPtr.2" = type { ptr }
%"class.Ipopt::SmartPtr.3" = type { ptr }
%"class.Ipopt::SmartPtr.4" = type { ptr }
%"class.Ipopt::SmartPtr.5" = type { ptr }
%"class.Ipopt::SmartPtr.6" = type { ptr }
%"class.Ipopt::SmartPtr.7" = type { ptr }
%"class.Ipopt::SmartPtr.8" = type { ptr }
%"class.Ipopt::SmartPtr.9" = type { ptr }
%"class.Ipopt::SmartPtr.10" = type { ptr }
%"class.std::__cxx11::basic_string" = type { %"struct.std::__cxx11::basic_string<char>::_Alloc_hider", i64, %union.anon }
%"struct.std::__cxx11::basic_string<char>::_Alloc_hider" = type { ptr }
%union.anon = type { i64, [8 x i8] }

; Function Attrs: mustprogress nounwind uwtable
define linkonce_odr noundef ptr @_ZNK5Ipopt8SmartPtrINS_15IterationOutputEEptEv(ptr noundef nonnull align 8 dereferenceable(8) %0) #5 comdat align 2 {
  %2 = alloca ptr, align 8
  store ptr %0, ptr %2, align 8, !tbaa !18
  %3 = load ptr, ptr %2, align 8
  %4 = getelementptr inbounds nuw %"class.Ipopt::SmartPtr.8", ptr %3, i32 0, i32 0
  %5 = load ptr, ptr %4, align 8, !tbaa !58
  ret ptr %5
}

; Function Attrs: mustprogress uwtable
define void @_ZN5Ipopt14IpoptAlgorithm15OutputIterationEv(ptr noundef nonnull align 8 dereferenceable(200) %0) #4 align 2 {
  %2 = alloca ptr, align 8
  store ptr %0, ptr %2, align 8, !tbaa !3
  %3 = load ptr, ptr %2, align 8
  %4 = getelementptr inbounds nuw %"class.Ipopt::IpoptAlgorithm", ptr %3, i32 0, i32 6
  %5 = call noundef ptr @_ZNK5Ipopt8SmartPtrINS_15IterationOutputEEptEv(ptr noundef nonnull align 8 dereferenceable(8) %4)
  %6 = load ptr, ptr %5, align 8, !tbaa !26
  %7 = getelementptr inbounds ptr, ptr %6, i64 3
  %8 = load ptr, ptr %7, align 8
  call void %8(ptr noundef nonnull align 8 dereferenceable(49) %5)
  ret void
}