; Function Attrs: mustprogress uwtable
define void @_ZN5Ipopt14IpoptAlgorithm15OutputIterationEv(ptr noundef nonnull readonly align 8 captures(none) dereferenceable(200) %0) local_unnamed_addr #3 align 2 {
  %2 = getelementptr inbounds nuw i8, ptr %0, i64 96
  %3 = load ptr, ptr %2, align 8, !tbaa !26
  %4 = load ptr, ptr %3, align 8, !tbaa !8
  %5 = getelementptr inbounds nuw i8, ptr %4, i64 24
  %6 = load ptr, ptr %5, align 8
  tail call void %6(ptr noundef nonnull align 8 dereferenceable(49) %3)
  ret void
}